ccopy_reg
_reconstructor
p0
(ccontrol_msgs.msg._FollowJointTrajectoryGoal
FollowJointTrajectoryGoal
p1
c__builtin__
object
p2
Ntp3
Rp4
(lp5
g0
(ctrajectory_msgs.msg._JointTrajectory
JointTrajectory
p6
g2
Ntp7
Rp8
(lp9
g0
(cstd_msgs.msg._Header
Header
p10
g2
Ntp11
Rp12
(lp13
I0
ag0
(cgenpy.rostime
Time
p14
g2
Ntp15
Rp16
(lp17
I0
aI0
abaS'/base_link'
p18
aba(lp19
S'Arm_Joint'
p20
aS'Forearm_Joint'
p21
aS'Shoulder_Joint'
p22
aS'Wrist_1_Joint'
p23
aS'Wrist_2_Joint'
p24
aa(lp25
g0
(ctrajectory_msgs.msg._JointTrajectoryPoint
JointTrajectoryPoint
p26
g2
Ntp27
Rp28
(lp29
(F4.7124
F0.0
F0.0
F0.0
F0.0
tp30
a(F0.0
F0.0
F0.0
F0.0
F0.0
tp31
a(F0.0
F0.0
F-0.787573698807454
F0.0
F0.0
tp32
a(tag0
(cgenpy.rostime
Duration
p33
g2
Ntp34
Rp35
(lp36
I0
aI0
ababag0
(g26
g2
Ntp37
Rp38
(lp39
(F4.692629697577884
F0.09306984386591532
F-0.07571829245985852
F-0.01868955536566155
F-0.08871562832826561
tp40
a(F-0.07787472075155923
F0.36659975890614716
F-0.2982524371756802
F-0.07361768545551249
F-0.3494486141311813
tp41
a(F-0.21251477056488072
F1.0004255925568832
F-0.8139104403213814
F-0.20089761328335226
F-0.9536212950698333
tp42
a(tag0
(g33
g2
Ntp43
Rp44
(lp45
I0
aI438500205
ababag0
(g26
g2
Ntp46
Rp47
(lp48
(F4.6728593951557675
F0.18613968773183065
F-0.15143658491971704
F-0.0373791107313231
F-0.17743125665653123
tp49
a(F-0.12647299838725978
F0.5953789659782333
F-0.4843790082568078
F-0.11955932970330951
F-0.5675245263792252
tp50
a(F-0.19911289042700425
F0.9373354654910221
F-0.7625825719799995
F-0.1882283492785382
F-0.8934828008866721
tp51
a(tag0
(g33
g2
Ntp52
Rp53
(lp54
I0
aI617153025
ababag0
(g26
g2
Ntp55
Rp56
(lp57
(F4.6530890927336515
F0.27920953159774603
F-0.22715487737957557
F-0.056068666096984646
F-0.2661468849847969
tp58
a(F-0.15456022406845965
F0.7276012078520908
F-0.5919502898238702
F-0.14611116225643545
F-0.6935608317985266
tp59
a(F-0.19075444539351163
F0.8979876013251421
F-0.7305705586056706
F-0.18032682011181927
F-0.8559758024019627
tp60
a(tag0
(g33
g2
Ntp61
Rp62
(lp63
I0
aI756103836
ababag0
(g26
g2
Ntp64
Rp65
(lp66
(F4.633318790311536
F0.3722793754636613
F-0.3028731698394341
F-0.0747582214626462
F-0.35486251331306246
tp67
a(F-0.16683770552634053
F0.785398163
F-0.638971823022997
F-0.15771749303270424
F-0.7486537918640284
tp68
a(F-6.160087524118083e-14
F0.0
F6.558268086513548e-15
F2.3422386023262674e-15
F0.0
tp69
a(tag0
(g33
g2
Ntp70
Rp71
(lp72
I0
aI874604041
ababag0
(g26
g2
Ntp73
Rp74
(lp75
(F4.61354848788942
F0.4653492193295767
F-0.3785914622992926
F-0.09344777682830774
F-0.44357814164132814
tp76
a(F-0.1668377055263442
F0.785398163
F-0.638971823022997
F-0.15771749303270416
F-0.7486537918640281
tp77
a(F0.0
F0.0
F-4.684477204652532e-15
F-9.368954409305063e-16
F3.747581763722025e-15
tp78
a(tag0
(g33
g2
Ntp79
Rp80
(lp81
I0
aI993104247
ababag0
(g26
g2
Ntp82
Rp83
(lp84
(F4.593778185467304
F0.5584190631954921
F-0.45430975475915114
F-0.11213733219396929
F-0.5322937699695938
tp85
a(F-0.16683770552634436
F0.785398163
F-0.6389718230229976
F-0.15771749303270435
F-0.7486537918640281
tp86
a(F-2.5764624625588948e-15
F0.0
F-5.6213726455830435e-15
F-2.3422386023262682e-15
F-2.8106863227915218e-15
tp87
a(tag0
(g33
g2
Ntp88
Rp89
(lp90
I1
aI111604453
ababag0
(g26
g2
Ntp91
Rp92
(lp93
(F4.574007883045188
F0.6514889070614073
F-0.5300280472190096
F-0.13082688755963084
F-0.6210093982978593
tp94
a(F-0.16683770552634442
F0.785398163
F-0.6389718230229975
F-0.15771749303270438
F-0.7486537918640284
tp95
a(F1.639567021628388e-15
F0.0
F6.558268086513552e-15
F1.639567021628388e-15
F-9.368954409305075e-16
tp96
a(tag0
(g33
g2
Ntp97
Rp98
(lp99
I1
aI230104659
ababag0
(g26
g2
Ntp100
Rp101
(lp102
(F4.554237580623072
F0.7445587509273226
F-0.6057463396788682
F-0.1495164429252924
F-0.7097250266261249
tp103
a(F-0.1668377055263442
F0.785398163
F-0.6389718230229967
F-0.15771749303270408
F-0.7486537918640284
tp104
a(F1.8737908818610127e-15
F0.0
F7.49516352744405e-15
F3.747581763722025e-15
F0.0
tp105
a(tag0
(g33
g2
Ntp106
Rp107
(lp108
I1
aI348604864
ababag0
(g26
g2
Ntp109
Rp110
(lp111
(F4.534467278200956
F0.837628594793238
F-0.6814646321387267
F-0.16820599829095392
F-0.7984406549543906
tp112
a(F-0.1668377055263442
F0.785398163
F-0.6389718230229967
F-0.15771749303270408
F-0.7486537918640284
tp113
a(F-1.8737908818610127e-15
F0.0
F-7.49516352744405e-15
F-3.747581763722025e-15
F0.0
tp114
a(tag0
(g33
g2
Ntp115
Rp116
(lp117
I1
aI467105070
ababag0
(g26
g2
Ntp118
Rp119
(lp120
(F4.51469697577884
F0.9306984386591534
F-0.7571829245985852
F-0.18689555365661548
F-0.8871562832826563
tp121
a(F-0.16683770552634053
F0.785398163
F-0.6389718230229976
F-0.1577174930327043
F-0.7486537918640284
tp122
a(F6.347466612304184e-14
F0.0
F-7.495163527444055e-15
F0.0
F0.0
tp123
a(tag0
(g33
g2
Ntp124
Rp125
(lp126
I1
aI585605276
ababag0
(g26
g2
Ntp127
Rp128
(lp129
(F4.494926673356725
F1.0237682825250687
F-0.8329012170584438
F-0.20558510902227703
F-0.9758719116109219
tp130
a(F-0.16683770552634042
F0.785398163
F-0.6389718230229972
F-0.15771749303270421
F-0.7486537918640279
tp131
a(F-6.160087524118079e-14
F0.0
F1.49903270548881e-14
F1.639567021628386e-15
F8.432058968374557e-15
tp132
a(tag0
(g33
g2
Ntp133
Rp134
(lp135
I1
aI704105481
ababag0
(g26
g2
Ntp136
Rp137
(lp138
(F4.4751563709346085
F1.1168381263909841
F-0.9086195095183023
F-0.22427466438793858
F-1.0645875399391875
tp139
a(F-0.1668377055263443
F0.785398163
F-0.6389718230229966
F-0.15771749303270416
F-0.7486537918640278
tp140
a(F-3.5133579034894007e-15
F0.0
F-5.621372645583041e-15
F-1.1711193011631335e-15
F-7.495163527444054e-15
tp141
a(tag0
(g33
g2
Ntp142
Rp143
(lp144
I1
aI822605687
ababag0
(g26
g2
Ntp145
Rp146
(lp147
(F4.455386068512492
F1.2099079702568993
F-0.9843378019781607
F-0.2429642197536001
F-1.153303168267453
tp148
a(F-0.1668377055263445
F0.785398163
F-0.6389718230229979
F-0.1577174930327045
F-0.7486537918640283
tp149
a(F0.0
F0.0
F-1.5927222495818636e-14
F-3.981805623954659e-15
F0.0
tp150
a(tag0
(g33
g2
Ntp151
Rp152
(lp153
I1
aI941105893
ababag0
(g26
g2
Ntp154
Rp155
(lp156
(F4.435615766090376
F1.3029778141228145
F-1.0600560944380193
F-0.2616537751192617
F-1.2420187965957186
tp157
a(F-0.1668377055263443
F0.785398163
F-0.6389718230229975
F-0.15771749303270427
F-0.7486537918640284
tp158
a(F3.5133579034894007e-15
F0.0
F2.1548595141401655e-14
F7.260939667211427e-15
F-9.368954409305067e-16
tp159
a(tag0
(g33
g2
Ntp160
Rp161
(lp162
I2
aI59606098
ababag0
(g26
g2
Ntp163
Rp164
(lp165
(F4.41584546366826
F1.39604765798873
F-1.1357743868978778
F-0.2803433304849232
F-1.3307344249239843
tp166
a(F-0.1668377055263443
F0.785398163
F-0.638971823022997
F-0.15771749303270427
F-0.7486537918640284
tp167
a(F-3.5133579034894007e-15
F0.0
F-1.4053431613957603e-14
F-7.260939667211427e-15
F9.368954409305067e-16
tp168
a(tag0
(g33
g2
Ntp169
Rp170
(lp171
I2
aI178106304
ababag0
(g26
g2
Ntp172
Rp173
(lp174
(F4.396075161246144
F1.4891175018546452
F-1.2114926793577363
F-0.2990328858505848
F-1.4194500532522498
tp175
a(F-0.1668377055263443
F0.785398163
F-0.638971823022997
F-0.15771749303270427
F-0.7486537918640284
tp176
a(F3.5133579034894007e-15
F0.0
F1.4053431613957603e-14
F7.260939667211427e-15
F-9.368954409305067e-16
tp177
a(tag0
(g33
g2
Ntp178
Rp179
(lp180
I2
aI296606510
ababag0
(g26
g2
Ntp181
Rp182
(lp183
(F4.376304858824028
F1.5821873457205606
F-1.2872109718175948
F-0.3177224412162463
F-1.5081656815805156
tp184
a(F-0.16683770552634034
F0.785398163
F-0.6389718230229963
F-0.15771749303270385
F-0.7486537918640284
tp185
a(F6.324044226280914e-14
F0.0
F0.0
F0.0
F0.0
tp186
a(tag0
(g33
g2
Ntp187
Rp188
(lp189
I2
aI415106715
ababag0
(g26
g2
Ntp190
Rp191
(lp192
(F4.356534556401913
F1.675257189586476
F-1.3629292642774533
F-0.33641199658190785
F-1.5968813099087813
tp193
a(F-0.16683770552634053
F0.785398163
F-0.638971823022997
F-0.15771749303270427
F-0.7486537918640284
tp194
a(F-6.675380016629861e-14
F0.0
F-1.4053431613957603e-14
F-7.260939667211427e-15
F9.368954409305067e-16
tp195
a(tag0
(g33
g2
Ntp196
Rp197
(lp198
I2
aI533606921
ababag0
(g26
g2
Ntp199
Rp200
(lp201
(F4.336764253979797
F1.7683270334523913
F-1.4386475567373118
F-0.3551015519475694
F-1.6855969382370468
tp202
a(F-0.1668377055263443
F0.785398163
F-0.638971823022997
F-0.15771749303270427
F-0.7486537918640284
tp203
a(F3.5133579034894007e-15
F0.0
F1.4053431613957603e-14
F7.260939667211427e-15
F-9.368954409305067e-16
tp204
a(tag0
(g33
g2
Ntp205
Rp206
(lp207
I2
aI652107127
ababag0
(g26
g2
Ntp208
Rp209
(lp210
(F4.316993951557681
F1.8613968773183067
F-1.5143658491971703
F-0.37379110731323095
F-1.7743125665653126
tp211
a(F-0.1668377055263443
F0.785398163
F-0.6389718230229979
F-0.15771749303270427
F-0.7486537918640284
tp212
a(F-3.5133579034894007e-15
F0.0
F-2.904375866884571e-14
F-7.260939667211427e-15
F9.368954409305067e-16
tp213
a(tag0
(g33
g2
Ntp214
Rp215
(lp216
I2
aI770607333
ababag0
(g26
g2
Ntp217
Rp218
(lp219
(F4.297223649135565
F1.954466721184222
F-1.590084141657029
F-0.39248066267889253
F-1.863028194893578
tp220
a(F-0.1668377055263443
F0.785398163
F-0.6389718230229979
F-0.15771749303270427
F-0.7486537918640284
tp221
a(F3.5133579034894007e-15
F0.0
F2.904375866884571e-14
F7.260939667211427e-15
F-9.368954409305067e-16
tp222
a(tag0
(g33
g2
Ntp223
Rp224
(lp225
I2
aI889107538
ababag0
(g26
g2
Ntp226
Rp227
(lp228
(F4.277453346713449
F2.0475365650501374
F-1.6658024341168876
F-0.41117021804455406
F-1.9517438232218438
tp229
a(F-0.1668377055263443
F0.785398163
F-0.638971823022997
F-0.15771749303270427
F-0.7486537918640292
tp230
a(F-3.5133579034894007e-15
F0.0
F-1.4053431613957603e-14
F-7.260939667211427e-15
F-1.4990327054888108e-14
tp231
a(tag0
(g33
g2
Ntp232
Rp233
(lp234
I3
aI7607744
ababag0
(g26
g2
Ntp235
Rp236
(lp237
(F4.2576830442913325
F2.1406064089160526
F-1.741520726576746
F-0.42985977341021564
F-2.0404594515501095
tp238
a(F-0.16683770552634408
F0.785398163
F-0.6389718230229964
F-0.1577174930327041
F-0.7486537918640275
tp239
a(F6.792491946746166e-15
F0.0
F2.623307234605416e-14
F1.0305849850235563e-14
F4.590787660559478e-14
tp240
a(tag0
(g33
g2
Ntp241
Rp242
(lp243
I3
aI126107950
ababag0
(g26
g2
Ntp244
Rp245
(lp246
(F4.237912741869216
F2.2336762527819682
F-1.8172390190366046
F-0.44854932877587717
F-2.129175079878375
tp247
a(F-0.16683770552634036
F0.785398163
F-0.6389718230229964
F-0.1577174930327041
F-0.7486537918640265
tp248
a(F5.644795031606297e-14
F0.0
F-2.623307234605416e-14
F-1.0305849850235563e-14
F-2.9980654109776184e-14
tp249
a(tag0
(g33
g2
Ntp250
Rp251
(lp252
I3
aI244608155
ababag0
(g26
g2
Ntp253
Rp254
(lp255
(F4.218142439447101
F2.3267460966478835
F-1.892957311496463
F-0.46723888414153875
F-2.2178907082066406
tp256
a(F-0.16683770552634075
F0.785398163
F-0.638971823022997
F-0.15771749303270427
F-0.7486537918640283
tp257
a(F-6.324044226280929e-14
F0.0
F1.5927222495818636e-14
F7.729387387676691e-15
F0.0
tp258
a(tag0
(g33
g2
Ntp259
Rp260
(lp261
I3
aI363108361
ababag0
(g26
g2
Ntp262
Rp263
(lp264
(F4.198372137024985
F2.4198159405137987
F-1.9686756039563214
F-0.4859284395072002
F-2.306606336534906
tp265
a(F-0.1668377055263445
F0.785398163
F-0.638971823022997
F-0.15771749303270402
F-0.7486537918640283
tp266
a(F0.0
F0.0
F-1.5927222495818636e-14
F-3.7475817637220324e-15
F0.0
tp267
a(tag0
(g33
g2
Ntp268
Rp269
(lp270
I3
aI481608567
ababag0
(g26
g2
Ntp271
Rp272
(lp273
(F4.178601834602869
F2.512885784379714
F-2.04439389641618
F-0.5046179948728617
F-2.3953219648631716
tp274
a(F-0.1668377055263445
F0.785398163
F-0.6389718230229988
F-0.15771749303270471
F-0.7486537918640283
tp275
a(F0.0
F0.0
F-1.499032705488813e-14
F-7.963611247909318e-15
F0.0
tp276
a(tag0
(g33
g2
Ntp277
Rp278
(lp279
I3
aI600108772
ababag0
(g26
g2
Ntp280
Rp281
(lp282
(F4.158831532180753
F2.605955628245629
F-2.1201121888760386
F-0.5233075502385234
F-2.484037593191437
tp283
a(F-0.1668377055263445
F0.785398163
F-0.6389718230229979
F-0.15771749303270471
F-0.7486537918640301
tp284
a(F0.0
F0.0
F3.0917549550706766e-14
F7.963611247909318e-15
F-3.185444499163727e-14
tp285
a(tag0
(g33
g2
Ntp286
Rp287
(lp288
I3
aI718608978
ababag0
(g26
g2
Ntp289
Rp290
(lp291
(F4.139061229758637
F2.6990254721115443
F-2.195830481335897
F-0.5419971056041849
F-2.572753221519703
tp292
a(F-0.16683770552634408
F0.785398163
F-0.6389718230229964
F-0.15771749303270388
F-0.7486537918640284
tp293
a(F6.792491946746166e-15
F0.0
F-5.621372645583034e-15
F6.324044226280914e-15
F6.183509910141338e-14
tp294
a(tag0
(g33
g2
Ntp295
Rp296
(lp297
I3
aI837109184
ababag0
(g26
g2
Ntp298
Rp299
(lp300
(F4.119290927336521
F2.79209531597746
F-2.2715487737957556
F-0.5606866609698464
F-2.6614688498479686
tp301
a(F-0.16683770552634036
F0.785398163
F-0.6389718230229964
F-0.15771749303270388
F-0.7486537918640265
tp302
a(F5.644795031606297e-14
F0.0
F5.621372645583034e-15
F-6.324044226280914e-15
F-2.9980654109776184e-14
tp303
a(tag0
(g33
g2
Ntp304
Rp305
(lp306
I3
aI955609389
ababag0
(g26
g2
Ntp307
Rp308
(lp309
(F4.099520624914406
F2.885165159843375
F-2.347267066255614
F-0.579376216335508
F-2.750184478176234
tp310
a(F-0.15527163778151276
F0.7309502291156116
F-0.5946749336069943
F-0.14678368641383666
F-0.6967531711571917
tp311
a(F0.18066669130153068
F-0.8504989145942798
F0.6919354634871577
F0.17079051487015118
F0.8107088447407632
tp312
a(tag0
(g33
g2
Ntp313
Rp314
(lp315
I4
aI74109595
ababag0
(g26
g2
Ntp316
Rp317
(lp318
(F4.0797503224922895
F2.9782350037092904
F-2.4229853587154726
F-0.5980657717011696
F-2.8389001065044996
tp319
a(F-0.12682104811148318
F0.5970174302161306
F-0.4857120040930192
F-0.11988835322819019
F-0.5690863360731137
tp320
a(F0.21277947101147993
F-1.0016716852422605
F0.8149242167119631
F0.20114784383352294
F0.9548090900735271
tp321
a(tag0
(g33
g2
Ntp322
Rp323
(lp324
I4
aI211684655
ababag0
(g26
g2
Ntp325
Rp326
(lp327
(F4.0599800200701734
F3.071304847575206
F-2.498703651175331
F-0.6167553270668311
F-2.9276157348327656
tp328
a(F-0.0775113567627296
F0.36488920188052365
F-0.296860789228767
F-0.07327418482299189
F-0.3478180844664045
tp329
a(F0.20975828290913737
F-0.9874492672452768
F0.8033533666852086
F0.19829180950975128
F0.9412520591756627
tp330
a(tag0
(g33
g2
Ntp331
Rp332
(lp333
I4
aI391518448
ababag0
(g26
g2
Ntp334
Rp335
(lp336
(F4.040209717648057
F3.1643746914411213
F-2.5744219436351896
F-0.6354448824324926
F-3.016331363161031
tp337
a(F0.0
F0.0
F0.0
F0.0
F0.0
tp338
a(F0.20563815822157586
F-0.9680535416163832
F0.7875736988074568
F0.19439691216233038
F0.9227637506691079
tp339
a(tag0
(g33
g2
Ntp340
Rp341
(lp342
I4
aI830018653
ababaaba(lp343
a(lp344
ag0
(g33
g2
Ntp345
Rp346
(lp347
I0
aI0
abab.